target datalayout = "e-m:e-p270:32:32-p271:32:32-p272:64:64-i64:64-i128:128-f80:128-n8:16:32:64-S128"
target triple = "x86_64-pc-linux-gnu"

%struct.LogicalRepPreparedTxnData = type { i64, i64, i64, i32, [200 x i8] }

@.str.1 = private unnamed_addr constant [8 x i8] c"proto.c\00", align 1
@.str.38 = private unnamed_addr constant [36 x i8] c"unrecognized flags %u in %s message\00", align 1
@__func__.logicalrep_read_prepare_common = private unnamed_addr constant [31 x i8] c"logicalrep_read_prepare_common\00", align 1
@.str.39 = private unnamed_addr constant [37 x i8] c"prepare_lsn is not set in %s message\00", align 1
@.str.40 = private unnamed_addr constant [33 x i8] c"end_lsn is not set in %s message\00", align 1
@.str.41 = private unnamed_addr constant [47 x i8] c"invalid two-phase transaction ID in %s message\00", align 1

; Function Attrs: nounwind uwtable
define internal void @logicalrep_read_prepare_common(ptr noundef %0, ptr noundef %1, ptr noundef %2) #0 {
  %4 = alloca ptr, align 8
  %5 = alloca ptr, align 8
  %6 = alloca ptr, align 8
  %7 = alloca i8, align 1
  store ptr %0, ptr %4, align 8
  store ptr %1, ptr %5, align 8
  store ptr %2, ptr %6, align 8
  call void @llvm.lifetime.start.p0(i64 1, ptr %7) #9
  %8 = load ptr, ptr %4, align 8
  %9 = call i32 @pq_getmsgbyte(ptr noundef %8)
  %10 = trunc i32 %9 to i8
  store i8 %10, ptr %7, align 1
  %11 = load i8, ptr %7, align 1
  %12 = zext i8 %11 to i32
  %13 = icmp ne i32 %12, 0
  br i1 %13, label %14, label %28

14:                                               ; preds = %3
  br label %15

15:                                               ; preds = %14
  br i1 true, label %16, label %18

16:                                               ; preds = %15
  %17 = call zeroext i1 @errstart_cold(i32 noundef 21, ptr noundef null) #8
  br i1 %17, label %20, label %25

18:                                               ; preds = %15
  %19 = call zeroext i1 @errstart(i32 noundef 21, ptr noundef null)
  br i1 %19, label %20, label %25

20:                                               ; preds = %18, %16
  %21 = load i8, ptr %7, align 1
  %22 = zext i8 %21 to i32
  %23 = load ptr, ptr %5, align 8
  %24 = call i32 (ptr, ...) @errmsg_internal(ptr noundef @.str.38, i32 noundef %22, ptr noundef %23)
  call void @errfinish(ptr noundef @.str.1, i32 noundef 206, ptr noundef @__func__.logicalrep_read_prepare_common)
  br label %25

25:                                               ; preds = %20, %18, %16
  unreachable

26:                                               ; No predecessors!
  br label %27

27:                                               ; preds = %26
  br label %28

28:                                               ; preds = %27, %3
  %29 = load ptr, ptr %4, align 8
  %30 = call i64 @pq_getmsgint64(ptr noundef %29)
  %31 = load ptr, ptr %6, align 8
  %32 = getelementptr inbounds nuw %struct.LogicalRepPreparedTxnData, ptr %31, i32 0, i32 0
  store i64 %30, ptr %32, align 8
  %33 = load ptr, ptr %6, align 8
  %34 = getelementptr inbounds nuw %struct.LogicalRepPreparedTxnData, ptr %33, i32 0, i32 0
  %35 = load i64, ptr %34, align 8
  %36 = icmp eq i64 %35, 0
  br i1 %36, label %37, label %49

37:                                               ; preds = %28
  br label %38

38:                                               ; preds = %37
  br i1 true, label %39, label %41

39:                                               ; preds = %38
  %40 = call zeroext i1 @errstart_cold(i32 noundef 21, ptr noundef null) #8
  br i1 %40, label %43, label %46

41:                                               ; preds = %38
  %42 = call zeroext i1 @errstart(i32 noundef 21, ptr noundef null)
  br i1 %42, label %43, label %46

43:                                               ; preds = %41, %39
  %44 = load ptr, ptr %5, align 8
  %45 = call i32 (ptr, ...) @errmsg_internal(ptr noundef @.str.39, ptr noundef %44)
  call void @errfinish(ptr noundef @.str.1, i32 noundef 211, ptr noundef @__func__.logicalrep_read_prepare_common)
  br label %46

46:                                               ; preds = %43, %41, %39
  unreachable

47:                                               ; No predecessors!
  br label %48

48:                                               ; preds = %47
  br label %49

49:                                               ; preds = %48, %28
  %50 = load ptr, ptr %4, align 8
  %51 = call i64 @pq_getmsgint64(ptr noundef %50)
  %52 = load ptr, ptr %6, align 8
  %53 = getelementptr inbounds nuw %struct.LogicalRepPreparedTxnData, ptr %52, i32 0, i32 1
  store i64 %51, ptr %53, align 8
  %54 = load ptr, ptr %6, align 8
  %55 = getelementptr inbounds nuw %struct.LogicalRepPreparedTxnData, ptr %54, i32 0, i32 1
  %56 = load i64, ptr %55, align 8
  %57 = icmp eq i64 %56, 0
  br i1 %57, label %58, label %70

58:                                               ; preds = %49
  br label %59

59:                                               ; preds = %58
  br i1 true, label %60, label %62

60:                                               ; preds = %59
  %61 = call zeroext i1 @errstart_cold(i32 noundef 21, ptr noundef null) #8
  br i1 %61, label %64, label %67

62:                                               ; preds = %59
  %63 = call zeroext i1 @errstart(i32 noundef 21, ptr noundef null)
  br i1 %63, label %64, label %67

64:                                               ; preds = %62, %60
  %65 = load ptr, ptr %5, align 8
  %66 = call i32 (ptr, ...) @errmsg_internal(ptr noundef @.str.40, ptr noundef %65)
  call void @errfinish(ptr noundef @.str.1, i32 noundef 214, ptr noundef @__func__.logicalrep_read_prepare_common)
  br label %67

67:                                               ; preds = %64, %62, %60
  unreachable

68:                                               ; No predecessors!
  br label %69

69:                                               ; preds = %68
  br label %70

70:                                               ; preds = %69, %49
  %71 = load ptr, ptr %4, align 8
  %72 = call i64 @pq_getmsgint64(ptr noundef %71)
  %73 = load ptr, ptr %6, align 8
  %74 = getelementptr inbounds nuw %struct.LogicalRepPreparedTxnData, ptr %73, i32 0, i32 2
  store i64 %72, ptr %74, align 8
  %75 = load ptr, ptr %4, align 8
  %76 = call i32 @pq_getmsgint(ptr noundef %75, i32 noundef 4)
  %77 = load ptr, ptr %6, align 8
  %78 = getelementptr inbounds nuw %struct.LogicalRepPreparedTxnData, ptr %77, i32 0, i32 3
  store i32 %76, ptr %78, align 8
  %79 = load ptr, ptr %6, align 8
  %80 = getelementptr inbounds nuw %struct.LogicalRepPreparedTxnData, ptr %79, i32 0, i32 3
  %81 = load i32, ptr %80, align 8
  %82 = icmp eq i32 %81, 0
  br i1 %82, label %83, label %95

83:                                               ; preds = %70
  br label %84

84:                                               ; preds = %83
  br i1 true, label %85, label %87

85:                                               ; preds = %84
  %86 = call zeroext i1 @errstart_cold(i32 noundef 21, ptr noundef null) #8
  br i1 %86, label %89, label %92

87:                                               ; preds = %84
  %88 = call zeroext i1 @errstart(i32 noundef 21, ptr noundef null)
  br i1 %88, label %89, label %92

89:                                               ; preds = %87, %85
  %90 = load ptr, ptr %5, align 8
  %91 = call i32 (ptr, ...) @errmsg_internal(ptr noundef @.str.41, ptr noundef %90)
  call void @errfinish(ptr noundef @.str.1, i32 noundef 218, ptr noundef @__func__.logicalrep_read_prepare_common)
  br label %92

92:                                               ; preds = %89, %87, %85
  unreachable

93:                                               ; No predecessors!
  br label %94

94:                                               ; preds = %93
  br label %95

95:                                               ; preds = %94, %70
  %96 = load ptr, ptr %6, align 8
  %97 = getelementptr inbounds nuw %struct.LogicalRepPreparedTxnData, ptr %96, i32 0, i32 4
  %98 = getelementptr inbounds [200 x i8], ptr %97, i64 0, i64 0
  %99 = load ptr, ptr %4, align 8
  %100 = call ptr @pq_getmsgstring(ptr noundef %99)
  %101 = call i64 @strlcpy(ptr noundef %98, ptr noundef %100, i64 noundef 200)
  call void @llvm.lifetime.end.p0(i64 1, ptr %7) #9
  ret void
}