; Function Attrs: nounwind uwtable
define internal fastcc void @logicalrep_read_prepare_common(ptr noundef %0, ptr noundef %1, ptr noundef %2) unnamed_addr #0 {
  %4 = tail call i32 @pq_getmsgbyte(ptr noundef %0) #8
  %5 = and i32 %4, 255
  %.not = icmp eq i32 %5, 0
  br i1 %.not, label %9, label %6

6:                                                ; preds = %3
  %7 = tail call zeroext i1 @errstart_cold(i32 noundef 21, ptr noundef null) #9
  tail call void @llvm.assume(i1 %7)
  %8 = tail call i32 (ptr, ...) @errmsg_internal(ptr noundef nonnull @.str.38, i32 noundef %5, ptr noundef %1) #8
  tail call void @errfinish(ptr noundef nonnull @.str.1, i32 noundef 206, ptr noundef nonnull @__func__.logicalrep_read_prepare_common) #8
  unreachable

9:                                                ; preds = %3
  %10 = tail call i64 @pq_getmsgint64(ptr noundef %0) #8
  store i64 %10, ptr %2, align 8
  %11 = icmp eq i64 %10, 0
  br i1 %11, label %12, label %15

12:                                               ; preds = %9
  %13 = tail call zeroext i1 @errstart_cold(i32 noundef 21, ptr noundef null) #9
  tail call void @llvm.assume(i1 %13)
  %14 = tail call i32 (ptr, ...) @errmsg_internal(ptr noundef nonnull @.str.39, ptr noundef %1) #8
  tail call void @errfinish(ptr noundef nonnull @.str.1, i32 noundef 211, ptr noundef nonnull @__func__.logicalrep_read_prepare_common) #8
  unreachable

15:                                               ; preds = %9
  %16 = tail call i64 @pq_getmsgint64(ptr noundef %0) #8
  %17 = getelementptr inbounds nuw i8, ptr %2, i64 8
  store i64 %16, ptr %17, align 8
  %18 = icmp eq i64 %16, 0
  br i1 %18, label %19, label %22

19:                                               ; preds = %15
  %20 = tail call zeroext i1 @errstart_cold(i32 noundef 21, ptr noundef null) #9
  tail call void @llvm.assume(i1 %20)
  %21 = tail call i32 (ptr, ...) @errmsg_internal(ptr noundef nonnull @.str.40, ptr noundef %1) #8
  tail call void @errfinish(ptr noundef nonnull @.str.1, i32 noundef 214, ptr noundef nonnull @__func__.logicalrep_read_prepare_common) #8
  unreachable

22:                                               ; preds = %15
  %23 = tail call i64 @pq_getmsgint64(ptr noundef %0) #8
  %24 = getelementptr inbounds nuw i8, ptr %2, i64 16
  store i64 %23, ptr %24, align 8
  %25 = tail call i32 @pq_getmsgint(ptr noundef %0, i32 noundef 4) #8
  %26 = getelementptr inbounds nuw i8, ptr %2, i64 24
  store i32 %25, ptr %26, align 8
  %27 = icmp eq i32 %25, 0
  br i1 %27, label %28, label %31

28:                                               ; preds = %22
  %29 = tail call zeroext i1 @errstart_cold(i32 noundef 21, ptr noundef null) #9
  tail call void @llvm.assume(i1 %29)
  %30 = tail call i32 (ptr, ...) @errmsg_internal(ptr noundef nonnull @.str.41, ptr noundef %1) #8
  tail call void @errfinish(ptr noundef nonnull @.str.1, i32 noundef 218, ptr noundef nonnull @__func__.logicalrep_read_prepare_common) #8
  unreachable

31:                                               ; preds = %22
  %32 = getelementptr inbounds nuw i8, ptr %2, i64 28
  %33 = tail call ptr @pq_getmsgstring(ptr noundef %0) #8
  %34 = tail call i64 @strlcpy(ptr noundef nonnull dereferenceable(1) %32, ptr noundef nonnull dereferenceable(1) %33, i64 noundef 200) #8
  ret void
}